; Function Attrs: mustprogress nounwind willreturn uwtable
define hidden void @PKCS12_free(ptr noundef captures(address_is_null) %0) local_unnamed_addr #8 {
  %2 = icmp eq ptr %0, null
  br i1 %2, label %5, label %3

3:                                                ; preds = %1
  %4 = load ptr, ptr %0, align 8, !tbaa !50
  tail call void @free(ptr noundef %4) #12
  tail call void @free(ptr noundef nonnull %0) #12
  br label %5

5:                                                ; preds = %1, %3
  ret void
}